target datalayout = "e-m:e-p270:32:32-p271:32:32-p272:64:64-i64:64-i128:128-f80:128-n8:16:32:64-S128"
target triple = "x86_64-pc-linux-gnu"

%struct.__va_list_tag = type { i32, i32, ptr, ptr }

@userCB = internal global ptr null, align 8
@stderr = external global ptr, align 8

; Function Attrs: nounwind uwtable
define void @PaUtil_SetDebugPrintFunction(ptr noundef %0) #0 {
  %2 = alloca ptr, align 8
  store ptr %0, ptr %2, align 8, !tbaa !3
  %3 = load ptr, ptr %2, align 8, !tbaa !3
  store ptr %3, ptr @userCB, align 8, !tbaa !3
  ret void
}

; Function Attrs: nounwind uwtable
define void @PaUtil_DebugPrint(ptr noundef %0, ...) #0 {
  %2 = alloca ptr, align 8
  %3 = alloca [2048 x i8], align 16
  %4 = alloca [1 x %struct.__va_list_tag], align 16
  %5 = alloca [1 x %struct.__va_list_tag], align 16
  store ptr %0, ptr %2, align 8, !tbaa !7
  %6 = load ptr, ptr @userCB, align 8, !tbaa !3
  %7 = icmp ne ptr %6, null
  br i1 %7, label %8, label %18

8:                                                ; preds = %1
  call void @llvm.lifetime.start.p0(i64 2048, ptr %3) #5
  call void @llvm.lifetime.start.p0(i64 24, ptr %4) #5
  %9 = getelementptr inbounds [1 x %struct.__va_list_tag], ptr %4, i64 0, i64 0
  call void @llvm.va_start.p0(ptr %9)
  %10 = getelementptr inbounds [2048 x i8], ptr %3, i64 0, i64 0
  %11 = load ptr, ptr %2, align 8, !tbaa !7
  %12 = getelementptr inbounds [1 x %struct.__va_list_tag], ptr %4, i64 0, i64 0
  %13 = call i32 @vsnprintf(ptr noundef %10, i64 noundef 2048, ptr noundef %11, ptr noundef %12) #5
  %14 = getelementptr inbounds nuw [2048 x i8], ptr %3, i64 0, i64 2047
  store i8 0, ptr %14, align 1, !tbaa !9
  %15 = load ptr, ptr @userCB, align 8, !tbaa !3
  %16 = getelementptr inbounds [2048 x i8], ptr %3, i64 0, i64 0
  call void %15(ptr noundef %16)
  %17 = getelementptr inbounds [1 x %struct.__va_list_tag], ptr %4, i64 0, i64 0
  call void @llvm.va_end.p0(ptr %17)
  call void @llvm.lifetime.end.p0(i64 24, ptr %4) #5
  call void @llvm.lifetime.end.p0(i64 2048, ptr %3) #5
  br label %27

18:                                               ; preds = %1
  call void @llvm.lifetime.start.p0(i64 24, ptr %5) #5
  %19 = getelementptr inbounds [1 x %struct.__va_list_tag], ptr %5, i64 0, i64 0
  call void @llvm.va_start.p0(ptr %19)
  %20 = load ptr, ptr @stderr, align 8, !tbaa !10
  %21 = load ptr, ptr %2, align 8, !tbaa !7
  %22 = getelementptr inbounds [1 x %struct.__va_list_tag], ptr %5, i64 0, i64 0
  %23 = call i32 @vfprintf(ptr noundef %20, ptr noundef %21, ptr noundef %22) #5
  %24 = getelementptr inbounds [1 x %struct.__va_list_tag], ptr %5, i64 0, i64 0
  call void @llvm.va_end.p0(ptr %24)
  %25 = load ptr, ptr @stderr, align 8, !tbaa !10
  %26 = call i32 @fflush(ptr noundef %25)
  call void @llvm.lifetime.end.p0(i64 24, ptr %5) #5
  br label %27

27:                                               ; preds = %18, %8
  ret void
}

; Function Attrs: nocallback nofree nosync nounwind willreturn memory(argmem: readwrite)
declare void @llvm.lifetime.start.p0(i64 immarg, ptr captures(none)) #1

; Function Attrs: nocallback nofree nosync nounwind willreturn
declare void @llvm.va_start.p0(ptr) #2

; Function Attrs: nounwind
declare i32 @vsnprintf(ptr noundef, i64 noundef, ptr noundef, ptr noundef) #3

; Function Attrs: nocallback nofree nosync nounwind willreturn
declare void @llvm.va_end.p0(ptr) #2

; Function Attrs: nocallback nofree nosync nounwind willreturn memory(argmem: readwrite)
declare void @llvm.lifetime.end.p0(i64 immarg, ptr captures(none)) #1

; Function Attrs: nounwind
declare i32 @vfprintf(ptr noundef, ptr noundef, ptr noundef) #3

declare i32 @fflush(ptr noundef) #4


!llvm.module.flags = !{!0, !1, !2}

!0 = !{i32 1, !"wchar_size", i32 4}
!1 = !{i32 8, !"PIC Level", i32 2}
!2 = !{i32 7, !"uwtable", i32 2}
!3 = !{!4, !4, i64 0}
!4 = !{!"any pointer", !5, i64 0}
!5 = !{!"omnipotent char", !6, i64 0}
!6 = !{!"Simple C/C++ TBAA"}
!7 = !{!8, !8, i64 0}
!8 = !{!"p1 omnipotent char", !4, i64 0}
!9 = !{!5, !5, i64 0}
!10 = !{!11, !11, i64 0}
!11 = !{!"p1 _ZTS8_IO_FILE", !4, i64 0}
